; Function Attrs: mustprogress nounwind uwtable
define dso_local noundef ptr @_ZN4llvm28ConstantFoldLoadFromConstPtrEPNS_8ConstantEPNS_4TypeENS_5APIntERKNS_10DataLayoutE(ptr noundef %0, ptr noundef %1, ptr noundef %2, ptr noundef nonnull align 8 dereferenceable(512) %3) local_unnamed_addr #0 {
  %5 = alloca %"class.llvm::function_ref", align 8
  %6 = tail call noundef ptr @_ZN4llvm19getUnderlyingObjectEPKNS_5ValueEj(ptr noundef %0, i32 noundef 6) #17
  %7 = load i8, ptr %6, align 8
  %.not = icmp eq i8 %7, 3
  br i1 %.not, label %8, label %_ZNK4llvm14GlobalVariable24hasDefinitiveInitializerEv.exit.thread

8:                                                ; preds = %4
  %9 = getelementptr inbounds nuw i8, ptr %6, i64 80
  %10 = load i8, ptr %9, align 8
  %11 = trunc i8 %10 to i1
  br i1 %11, label %12, label %_ZNK4llvm14GlobalVariable24hasDefinitiveInitializerEv.exit.thread

12:                                               ; preds = %8
  %13 = tail call noundef zeroext i1 @_ZNK4llvm11GlobalValue13isDeclarationEv(ptr noundef nonnull align 8 dereferenceable(81) %6) #17
  br i1 %13, label %_ZNK4llvm14GlobalVariable24hasDefinitiveInitializerEv.exit.thread, label %14

14:                                               ; preds = %12
  %15 = tail call noundef zeroext i1 @_ZNK4llvm11GlobalValue14isInterposableEv(ptr noundef nonnull align 8 dereferenceable(81) %6) #17
  br i1 %15, label %_ZNK4llvm14GlobalVariable24hasDefinitiveInitializerEv.exit.thread, label %_ZNK4llvm14GlobalVariable24hasDefinitiveInitializerEv.exit

_ZNK4llvm14GlobalVariable24hasDefinitiveInitializerEv.exit: ; preds = %14
  %16 = load i8, ptr %9, align 8
  %17 = and i8 %16, 2
  %.not.i = icmp eq i8 %17, 0
  br i1 %.not.i, label %18, label %_ZNK4llvm14GlobalVariable24hasDefinitiveInitializerEv.exit.thread

18:                                               ; preds = %_ZNK4llvm14GlobalVariable24hasDefinitiveInitializerEv.exit
  call void @llvm.lifetime.start.p0(i64 16, ptr nonnull %5)
  store ptr null, ptr %5, align 8
  %19 = tail call noundef ptr @_ZNK4llvm5Value33stripAndAccumulateConstantOffsetsERKNS_10DataLayoutERNS_5APIntEbbNS_12function_refIFbRS0_S5_EEE(ptr noundef nonnull align 8 dereferenceable(24) %0, ptr noundef nonnull align 8 dereferenceable(512) %3, ptr noundef nonnull align 8 dereferenceable(12) %2, i1 noundef zeroext true, i1 noundef zeroext false, ptr noundef nonnull byval(%"class.llvm::function_ref") align 8 %5) #17
  call void @llvm.lifetime.end.p0(i64 16, ptr nonnull %5)
  %20 = icmp eq ptr %19, %6
  br i1 %20, label %21, label %25

21:                                               ; preds = %18
  %22 = getelementptr inbounds i8, ptr %6, i64 -32
  %23 = load ptr, ptr %22, align 8
  %24 = tail call noundef ptr @_ZN4llvm25ConstantFoldLoadFromConstEPNS_8ConstantEPNS_4TypeERKNS_5APIntERKNS_10DataLayoutE(ptr noundef %23, ptr noundef %1, ptr noundef nonnull align 8 dereferenceable(12) %2, ptr noundef nonnull align 8 dereferenceable(512) %3)
  %.not19 = icmp eq ptr %24, null
  br i1 %.not19, label %25, label %_ZNK4llvm14GlobalVariable24hasDefinitiveInitializerEv.exit.thread

25:                                               ; preds = %21, %18
  %26 = getelementptr inbounds i8, ptr %6, i64 -32
  %27 = load ptr, ptr %26, align 8
  %28 = tail call noundef ptr @_ZN4llvm32ConstantFoldLoadFromUniformValueEPNS_8ConstantEPNS_4TypeERKNS_10DataLayoutE(ptr noundef %27, ptr noundef %1, ptr noundef nonnull align 8 dereferenceable(512) %3)
  br label %_ZNK4llvm14GlobalVariable24hasDefinitiveInitializerEv.exit.thread

_ZNK4llvm14GlobalVariable24hasDefinitiveInitializerEv.exit.thread: ; preds = %12, %14, %21, %4, %8, %_ZNK4llvm14GlobalVariable24hasDefinitiveInitializerEv.exit, %25
  %.0 = phi ptr [ %28, %25 ], [ null, %_ZNK4llvm14GlobalVariable24hasDefinitiveInitializerEv.exit ], [ null, %8 ], [ null, %4 ], [ %24, %21 ], [ null, %14 ], [ null, %12 ]
  ret ptr %.0
}